TN:
SF:/var/jenkins_home/workspace/soil_master-334BU6HP7ZUDNTUBIASDDTBNNUA6574M64EMF5MPSIEEUZV6SRLQ/libs/data_file.cc
FN:35,_ZN4soil12DataCallbackC2EPNS_8DataFileE
FN:40,_ZN4soil12DataCallback5onMsgESt10shared_ptrINS_4DataEE
FN:47,_ZN4soil12DataCallback7onStartEv
FN:50,_ZN4soil12DataCallback6onStopEv
FN:53,_ZN4soil8DataFileC2ERKSs
FN:67,_ZN4soil8DataFileD2Ev
FN:67,_ZN4soil8DataFileD0Ev
FN:71,_ZN4soil8DataFile7putDataESt10shared_ptrINS_4DataEE
FN:75,_ZN4soil8DataFile7outDataESt10shared_ptrINS_4DataEE
FNDA:2,_ZN4soil8DataFile7outDataESt10shared_ptrINS_4DataEE
FNDA:2,_ZN4soil8DataFile7putDataESt10shared_ptrINS_4DataEE
FNDA:1,_ZN4soil8DataFileC2ERKSs
FNDA:1,_ZN4soil8DataFileD2Ev
FNDA:2,_ZN4soil12DataCallback5onMsgESt10shared_ptrINS_4DataEE
FNDA:1,_ZN4soil12DataCallback6onStopEv
FNDA:1,_ZN4soil12DataCallbackC2EPNS_8DataFileE
FNDA:1,_ZN4soil8DataFileD0Ev
FNDA:1,_ZN4soil12DataCallback7onStartEv
FNF:9
FNH:9
DA:35,1
DA:36,2
DA:37,1
DA:40,2
DA:42,2
DA:44,4
DA:45,2
DA:47,1
DA:48,1
DA:50,1
DA:51,1
DA:53,1
DA:54,1
DA:56,3
DA:59,0
DA:62,1
DA:64,2
DA:65,1
DA:67,4
DA:68,1
DA:69,2
DA:71,2
DA:72,6
DA:73,2
DA:75,2
DA:76,2
DA:78,6
DA:79,4
DA:81,2
LF:29
LH:28
end_of_record
TN:
SF:/var/jenkins_home/workspace/soil_master-334BU6HP7ZUDNTUBIASDDTBNNUA6574M64EMF5MPSIEEUZV6SRLQ/libs/date_time.cc
FN:41,_ZN4soil8DateTimeC2Ev
FN:45,_ZN4soil8DateTimeC2ERKNSt6chrono10time_pointINS1_3_V212system_clockENS1_8durationIlSt5ratioILl1ELl1000000000EEEEEE
FN:106,_ZN4soil8DateTimeC2ER2tm
FN:110,_ZN4soil8DateTimeD2Ev
FN:113,_ZN4soil8DateTime3nowEv
FN:117,_ZN4soil8DateTime6fromTMEP2tm
FN:123,_ZNK4soil8DateTimeplERKNSt6chrono8durationIlSt5ratioILl1ELl1000000000EEEE
FN:128,_ZN4soil8DateTimepLERKNSt6chrono8durationIlSt5ratioILl1ELl1000000000EEEE
FN:134,_ZNK4soil8DateTimemiERKNSt6chrono8durationIlSt5ratioILl1ELl1000000000EEEE
FN:139,_ZN4soil8DateTimemIERKNSt6chrono8durationIlSt5ratioILl1ELl1000000000EEEE
FN:145,_ZNK4soil8DateTimemiERKS0_
FN:150,_ZNK4soil8DateTime8toStringEv
FN:161,_ZNK4soil8DateTime9getStringERKSs
FN:170,_ZN4soillsERSoRKNS_8DateTimeE
FNDA:1,_ZN4soil8DateTimeC2ERKNSt6chrono10time_pointINS1_3_V212system_clockENS1_8durationIlSt5ratioILl1ELl1000000000EEEEEE
FNDA:3,_ZN4soil8DateTime6fromTMEP2tm
FNDA:15,_ZNK4soil8DateTime9getStringERKSs
FNDA:1,_ZNK4soil8DateTimemiERKS0_
FNDA:0,_ZNK4soil8DateTimemiERKNSt6chrono8durationIlSt5ratioILl1ELl1000000000EEEE
FNDA:1,_ZNK4soil8DateTimeplERKNSt6chrono8durationIlSt5ratioILl1ELl1000000000EEEE
FNDA:10,_ZNK4soil8DateTime8toStringEv
FNDA:1,_ZN4soil8DateTimepLERKNSt6chrono8durationIlSt5ratioILl1ELl1000000000EEEE
FNDA:0,_ZN4soil8DateTimeC2ER2tm
FNDA:9,_ZN4soillsERSoRKNS_8DateTimeE
FNDA:0,_ZN4soil8DateTimemIERKNSt6chrono8durationIlSt5ratioILl1ELl1000000000EEEE
FNDA:3,_ZN4soil8DateTimeC2ERKSs
FNDA:1,_ZN4soil8DateTime3nowEv
FNDA:6,_ZN4soil8DateTimeC2Ev
FNDA:11,_ZN4soil8DateTimeD2Ev
FNF:15
FNH:12
DA:41,6
DA:42,6
DA:43,6
DA:45,1
DA:46,1
DA:47,1
DA:49,3
DA:50,3
DA:51,3
DA:55,3
DA:59,3
DA:62,3
DA:64,6
DA:66,3
DA:67,2
DA:68,2
DA:69,1
DA:70,2
DA:71,0
DA:72,2
DA:73,1
DA:74,1
DA:75,1
DA:76,2
DA:78,1
DA:79,1
DA:80,1
DA:82,2
DA:84,0
DA:87,3
DA:89,3
DA:90,1
DA:92,0
DA:93,0
DA:96,0
DA:97,0
DA:100,1
DA:101,1
DA:104,3
DA:106,0
DA:107,0
DA:108,0
DA:110,11
DA:111,11
DA:113,1
DA:114,1
DA:117,3
DA:118,3
DA:120,3
DA:121,3
DA:123,1
DA:125,2
DA:128,1
DA:130,1
DA:131,1
DA:134,0
DA:136,0
DA:139,0
DA:141,0
DA:142,0
DA:145,1
DA:147,2
DA:150,10
DA:151,10
DA:152,30
DA:155,20
DA:156,30
DA:158,10
DA:161,15
DA:162,30
DA:165,30
DA:167,15
DA:170,9
DA:171,18
DA:173,9
LF:75
LH:61
end_of_record
TN:
SF:/var/jenkins_home/workspace/soil_master-334BU6HP7ZUDNTUBIASDDTBNNUA6574M64EMF5MPSIEEUZV6SRLQ/libs/demangle.cc
FNDA:11,_ZN4soil8demangleEPKc
FNF:1
FNH:1
DA:37,11
DA:38,11
DA:39,11
DA:42,22
DA:43,22
LF:5
LH:5
end_of_record
TN:
SF:/var/jenkins_home/workspace/soil_master-334BU6HP7ZUDNTUBIASDDTBNNUA6574M64EMF5MPSIEEUZV6SRLQ/libs/file_system.cc
FN:36,_ZN4soil9checkPathERKSs
FNDA:0,_ZN4soil9checkPathERKSs
FNF:1
FNH:0
DA:36,0
DA:39,0
DA:40,0
DA:43,0
DA:44,0
DA:47,0
DA:48,0
DA:50,0
LF:8
LH:0
end_of_record
TN:
SF:/var/jenkins_home/workspace/soil_master-334BU6HP7ZUDNTUBIASDDTBNNUA6574M64EMF5MPSIEEUZV6SRLQ/libs/hexdump.cc
FNDA:2,_ZN4soil7hexdumpERKSsPKvi
FNF:1
FNH:1
DA:36,2
DA:40,2
DA:42,2
DA:45,2
DA:46,2
DA:48,2
DA:49,0
DA:52,2
DA:53,0
DA:58,132
DA:61,132
DA:63,9
DA:64,14
DA:67,36
DA:71,396
DA:72,264
DA:75,132
DA:76,50
DA:78,82
DA:79,132
DA:83,14
DA:84,12
DA:85,12
DA:89,4
DA:91,2
LF:25
LH:23
end_of_record
TN:
SF:/var/jenkins_home/workspace/soil_master-334BU6HP7ZUDNTUBIASDDTBNNUA6574M64EMF5MPSIEEUZV6SRLQ/libs/json.cc
FN:50,_ZN4soil4json14load_from_fileEPN9rapidjson15GenericDocumentINS1_4UTF8IcEENS1_19MemoryPoolAllocatorINS1_12CrtAllocatorEEES6_EERKSs
FN:61,_ZN4soil4json13escape_stringERKSs
FNDA:1,_ZN4soil4json13escape_stringERKSs
FNDA:0,_ZN4soil4json15get_parse_errorERKN9rapidjson15GenericDocumentINS1_4UTF8IcEENS1_19MemoryPoolAllocatorINS1_12CrtAllocatorEEES6_EERKSs
FNDA:4,_ZN4soil4json14load_from_fileEPN9rapidjson15GenericDocumentINS1_4UTF8IcEENS1_19MemoryPoolAllocatorINS1_12CrtAllocatorEEES6_EERKSs
FNF:3
FNH:2
DA:39,0
DA:42,0
DA:43,0
DA:46,0
DA:47,0
DA:50,4
DA:53,4
DA:56,8
DA:57,0
DA:58,4
DA:59,4
DA:61,1
DA:77,1
DA:79,13
DA:80,9
DA:81,9
DA:82,9
DA:85,1
DA:86,1
DA:89,1
DA:90,1
DA:93,8
DA:97,2
LF:23
LH:17
end_of_record
TN:
SF:/var/jenkins_home/workspace/soil_master-334BU6HP7ZUDNTUBIASDDTBNNUA6574M64EMF5MPSIEEUZV6SRLQ/libs/log.cc
FN:43,_ZN4soil3logL13get_log_levelEPN6spdlog5level10level_enumERKSs
FN:82,_ZN4soil3log11ConsoleSink6createERKSsRKN9rapidjson15GenericDocumentINS4_4UTF8IcEENS4_19MemoryPoolAllocatorINS4_12CrtAllocatorEEES9_EEm
FN:100,_ZN4soil3log8FileSink6createERKSsRKN9rapidjson15GenericDocumentINS4_4UTF8IcEENS4_19MemoryPoolAllocatorINS4_12CrtAllocatorEEES9_EEm
FN:123,_ZN4soil3log8FileSink13parseFileNameERKN9rapidjson15GenericDocumentINS2_4UTF8IcEENS2_19MemoryPoolAllocatorINS2_12CrtAllocatorEEES7_EEm
FN:138,_ZN4soil3log16RotatingFileSink6createERKSsRKN9rapidjson15GenericDocumentINS4_4UTF8IcEENS4_19MemoryPoolAllocatorINS4_12CrtAllocatorEEES9_EEm
FN:170,_ZN4soil3log13DailyFileSink6createERKSsRKN9rapidjson15GenericDocumentINS4_4UTF8IcEENS4_19MemoryPoolAllocatorINS4_12CrtAllocatorEEES9_EEm
FN:200,_ZN4soil3log10createSinkERKSs
FN:225,_ZN4soil3log4initERKN9rapidjson15GenericDocumentINS1_4UTF8IcEENS1_19MemoryPoolAllocatorINS1_12CrtAllocatorEEES6_EE
FN:285,_Z41__static_initialization_and_destruction_0ii
FN:285,_GLOBAL__sub_I_log.cc
FNDA:1,_Z41__static_initialization_and_destruction_0ii
FNDA:3,_ZN4soil3log16RotatingFileSink6createERKSsRKN9rapidjson15GenericDocumentINS4_4UTF8IcEENS4_19MemoryPoolAllocatorINS4_12CrtAllocatorEEES9_EEm
FNDA:6,_ZN4soil3logL13get_log_levelEPN6spdlog5level10level_enumERKSs
FNDA:3,_ZN4soil3log4initERKN9rapidjson15GenericDocumentINS1_4UTF8IcEENS1_19MemoryPoolAllocatorINS1_12CrtAllocatorEEES6_EE
FNDA:0,_ZN4soil3log13DailyFileSink6createERKSsRKN9rapidjson15GenericDocumentINS4_4UTF8IcEENS4_19MemoryPoolAllocatorINS4_12CrtAllocatorEEES9_EEm
FNDA:3,_ZN4soil3log11ConsoleSink6createERKSsRKN9rapidjson15GenericDocumentINS4_4UTF8IcEENS4_19MemoryPoolAllocatorINS4_12CrtAllocatorEEES9_EEm
FNDA:3,_ZN4soil3log8FileSink13parseFileNameERKN9rapidjson15GenericDocumentINS2_4UTF8IcEENS2_19MemoryPoolAllocatorINS2_12CrtAllocatorEEES7_EEm
FNDA:6,_ZN4soil3log10createSinkERKSs
FNDA:1,_GLOBAL__sub_I_log.cc
FNDA:0,_ZN4soil3log8FileSink6createERKSsRKN9rapidjson15GenericDocumentINS4_4UTF8IcEENS4_19MemoryPoolAllocatorINS4_12CrtAllocatorEEES9_EEm
FNF:10
FNH:8
DA:41,2
DA:43,6
DA:46,7
DA:47,6
DA:53,2
DA:54,2
DA:55,2
DA:56,2
DA:57,2
DA:59,3
DA:60,3
DA:63,6
DA:64,12
DA:65,6
DA:68,0
DA:70,6
DA:72,6
DA:80,6
DA:82,3
DA:86,3
DA:87,3
DA:88,0
DA:89,0
DA:90,0
DA:91,0
DA:92,0
DA:93,0
DA:95,0
DA:98,6
DA:100,0
DA:104,0
DA:106,0
DA:107,0
DA:108,0
DA:110,0
DA:113,0
DA:114,0
DA:117,0
DA:120,0
DA:123,3
DA:124,3
DA:125,3
DA:126,3
DA:129,3
DA:136,6
DA:138,3
DA:142,3
DA:144,3
DA:146,3
DA:148,6
DA:150,3
DA:152,3
DA:156,9
DA:157,0
DA:161,0
DA:164,0
DA:168,0
DA:170,0
DA:174,0
DA:176,0
DA:178,0
DA:180,0
DA:182,0
DA:184,0
DA:188,0
DA:189,0
DA:193,0
DA:196,0
DA:200,6
DA:201,6
DA:203,6
DA:204,6
DA:205,6
DA:207,6
DA:208,6
DA:210,6
DA:211,3
DA:213,0
DA:214,3
DA:216,6
DA:217,0
DA:219,0
DA:225,3
DA:228,6
DA:232,6
DA:233,6
DA:237,3
DA:245,6
DA:246,3
DA:247,3
DA:248,3
DA:252,3
DA:253,18
DA:254,9
DA:256,6
DA:258,6
DA:260,6
DA:261,6
DA:262,6
DA:267,6
DA:268,6
DA:269,6
DA:270,3
DA:271,3
DA:273,6
DA:278,9
DA:281,3
DA:285,3
LF:108
LH:72
end_of_record
TN:
SF:/var/jenkins_home/workspace/soil_master-334BU6HP7ZUDNTUBIASDDTBNNUA6574M64EMF5MPSIEEUZV6SRLQ/libs/pause_impl.cc
FN:38,_ZN4soil5Pause6createEv
FNDA:0,_ZN4soil5Pause6createEv
FNDA:0,_ZN4soil9PauseImplC2Ev
FNF:2
FNH:0
DA:34,0
DA:35,0
DA:36,0
DA:38,0
DA:39,0
LF:5
LH:0
end_of_record
TN:
SF:/var/jenkins_home/workspace/soil_master-334BU6HP7ZUDNTUBIASDDTBNNUA6574M64EMF5MPSIEEUZV6SRLQ/libs/pause_impl.h
FNDA:0,_ZN4soil9PauseImplD0Ev
FNDA:0,_ZN4soil9PauseImplD2Ev
FNF:2
FNH:0
DA:15,0
DA:16,0
LF:2
LH:0
end_of_record
TN:
SF:/var/jenkins_home/workspace/soil_master-334BU6HP7ZUDNTUBIASDDTBNNUA6574M64EMF5MPSIEEUZV6SRLQ/libs/s_timer_impl.cc
FN:34,_ZN4soil10STimerImplC2Ev
FN:37,_ZN4soil10STimerImplD0Ev
FN:37,_ZN4soil10STimerImplD2Ev
FN:55,_ZN4soil10STimerImpl9notifyOneEv
FN:59,_ZN4soil10STimerImpl9notifyAllEv
FN:63,_ZN4soil6STimer6createEv
FNDA:2,_ZN4soil10STimerImplC2Ev
FNDA:2,_ZN4soil10STimerImplD0Ev
FNDA:2,_ZN4soil10STimerImplD2Ev
FNDA:2,_ZN4soil6STimer6createEv
FNDA:2,_ZN4soil10STimerImpl4waitEi
FNDA:0,_ZN4soil10STimerImpl9notifyOneEv
FNDA:1,_ZN4soil10STimerImpl9notifyAllEv
FNF:7
FNH:6
DA:34,4
DA:35,2
DA:37,4
DA:38,4
DA:40,2
DA:41,2
DA:43,2
DA:44,0
DA:46,2
DA:47,4
DA:52,1
DA:55,0
DA:56,0
DA:57,0
DA:59,1
DA:60,1
DA:61,1
DA:63,2
DA:64,2
LF:19
LH:15
end_of_record
TN:
SF:/var/jenkins_home/workspace/soil_master-334BU6HP7ZUDNTUBIASDDTBNNUA6574M64EMF5MPSIEEUZV6SRLQ/libs/string.cc
FN:34,_ZN4soil11splitStringEPSt3setISsSt4lessISsESaISsEERKSs
FN:42,_ZN4soil11splitStringEPSt6vectorISsSaISsEERKSs
FNDA:0,_ZN4soil8toStringERKc
FNDA:0,_ZN4soil7toLowerEPSs
FNDA:1,_ZN4soil7toUpperEPSs
FNDA:1,_ZN4soil11splitStringEPSt6vectorISsSaISsEERKSs
FNDA:1,_ZN4soil11splitStringEPSt3setISsSt4lessISsESaISsEERKSs
FNF:5
FNH:3
DA:34,1
DA:35,1
DA:37,6
DA:39,1
DA:40,1
DA:42,1
DA:43,1
DA:45,6
DA:46,2
DA:47,1
DA:48,1
DA:50,1
DA:51,16
DA:52,13
DA:54,1
DA:56,0
DA:57,0
DA:58,0
DA:60,0
DA:62,0
DA:63,0
DA:64,0
LF:22
LH:15
end_of_record
TN:
SF:/var/jenkins_home/workspace/soil_master-334BU6HP7ZUDNTUBIASDDTBNNUA6574M64EMF5MPSIEEUZV6SRLQ/soil/data_file.h
FN:72,_ZN4soil8DataFile10filterDataESt10shared_ptrINS_4DataEE
FNDA:2,_ZN4soil8DataFile10filterDataESt10shared_ptrINS_4DataEE
FNF:1
FNH:1
DA:40,2
DA:45,1
DA:72,2
DA:74,2
LF:4
LH:4
end_of_record
TN:
SF:/var/jenkins_home/workspace/soil_master-334BU6HP7ZUDNTUBIASDDTBNNUA6574M64EMF5MPSIEEUZV6SRLQ/soil/json.h
FN:50,_ZN4soil4json9get_valueISsEET_PKN9rapidjson12GenericValueINS3_4UTF8IcEENS3_19MemoryPoolAllocatorINS3_12CrtAllocatorEEEEE
FN:64,_ZN4soil4json9get_valueIiEET_PKN9rapidjson12GenericValueINS3_4UTF8IcEENS3_19MemoryPoolAllocatorINS3_12CrtAllocatorEEEEE
FN:70,_ZN4soil4json9get_valueIjEET_PKN9rapidjson12GenericValueINS3_4UTF8IcEENS3_19MemoryPoolAllocatorINS3_12CrtAllocatorEEEEE
FN:76,_ZN4soil4json9get_valueIlEET_PKN9rapidjson12GenericValueINS3_4UTF8IcEENS3_19MemoryPoolAllocatorINS3_12CrtAllocatorEEEEE
FN:82,_ZN4soil4json9get_valueImEET_PKN9rapidjson12GenericValueINS3_4UTF8IcEENS3_19MemoryPoolAllocatorINS3_12CrtAllocatorEEEEE
FN:94,_ZN4soil4json14get_item_valueISsEEvPT_RKN9rapidjson15GenericDocumentINS4_4UTF8IcEENS4_19MemoryPoolAllocatorINS4_12CrtAllocatorEEES9_EERKSsbPm
FN:94,_ZN4soil4json14get_item_valueIdEEvPT_RKN9rapidjson15GenericDocumentINS4_4UTF8IcEENS4_19MemoryPoolAllocatorINS4_12CrtAllocatorEEES9_EERKSsbPm
FN:94,_ZN4soil4json14get_item_valueIjEEvPT_RKN9rapidjson15GenericDocumentINS4_4UTF8IcEENS4_19MemoryPoolAllocatorINS4_12CrtAllocatorEEES9_EERKSsbPm
FN:94,_ZN4soil4json14get_item_valueImEEvPT_RKN9rapidjson15GenericDocumentINS4_4UTF8IcEENS4_19MemoryPoolAllocatorINS4_12CrtAllocatorEEES9_EERKSsbPm
FN:94,_ZN4soil4json14get_item_valueIiEEvPT_RKN9rapidjson15GenericDocumentINS4_4UTF8IcEENS4_19MemoryPoolAllocatorINS4_12CrtAllocatorEEES9_EERKSsbPm
FN:94,_ZN4soil4json14get_item_valueIlEEvPT_RKN9rapidjson15GenericDocumentINS4_4UTF8IcEENS4_19MemoryPoolAllocatorINS4_12CrtAllocatorEEES9_EERKSsbPm
FN:94,_ZN4soil4json14get_item_valueIbEEvPT_RKN9rapidjson15GenericDocumentINS4_4UTF8IcEENS4_19MemoryPoolAllocatorINS4_12CrtAllocatorEEES9_EERKSsbPm
FN:139,_ZN4soil4json11write_valueEPN9rapidjson12PrettyWriterINS1_19GenericStringBufferINS1_4UTF8IcEENS1_12CrtAllocatorEEES5_S5_S6_Lj0EEEi
FN:163,_ZN4soil4json11write_valueEPN9rapidjson12PrettyWriterINS1_19GenericStringBufferINS1_4UTF8IcEENS1_12CrtAllocatorEEES5_S5_S6_Lj0EEEx
FNDA:26,_ZN4soil4json14get_item_valueISsEEvPT_RKN9rapidjson15GenericDocumentINS4_4UTF8IcEENS4_19MemoryPoolAllocatorINS4_12CrtAllocatorEEES9_EERKSsbPm
FNDA:1,_ZN4soil4json11write_valueEPN9rapidjson12PrettyWriterINS1_19GenericStringBufferINS1_4UTF8IcEENS1_12CrtAllocatorEEES5_S5_S6_Lj0EEEx
FNDA:1,_ZN4soil4json9get_valueIlEET_PKN9rapidjson12GenericValueINS3_4UTF8IcEENS3_19MemoryPoolAllocatorINS3_12CrtAllocatorEEEEE
FNDA:2,_ZN4soil4json9get_valueIiEET_PKN9rapidjson12GenericValueINS3_4UTF8IcEENS3_19MemoryPoolAllocatorINS3_12CrtAllocatorEEEEE
FNDA:1,_ZN4soil4json14get_item_valueIdEEvPT_RKN9rapidjson15GenericDocumentINS4_4UTF8IcEENS4_19MemoryPoolAllocatorINS4_12CrtAllocatorEEES9_EERKSsbPm
FNDA:1,_ZN4soil4json14get_item_valueIjEEvPT_RKN9rapidjson15GenericDocumentINS4_4UTF8IcEENS4_19MemoryPoolAllocatorINS4_12CrtAllocatorEEES9_EERKSsbPm
FNDA:1,_ZN4soil4json11write_valueEPN9rapidjson12PrettyWriterINS1_19GenericStringBufferINS1_4UTF8IcEENS1_12CrtAllocatorEEES5_S5_S6_Lj0EEEi
FNDA:7,_ZN4soil4json14get_item_valueImEEvPT_RKN9rapidjson15GenericDocumentINS4_4UTF8IcEENS4_19MemoryPoolAllocatorINS4_12CrtAllocatorEEES9_EERKSsbPm
FNDA:2,_ZN4soil4json14get_item_valueIiEEvPT_RKN9rapidjson15GenericDocumentINS4_4UTF8IcEENS4_19MemoryPoolAllocatorINS4_12CrtAllocatorEEES9_EERKSsbPm
FNDA:1,_ZN4soil4json14get_item_valueIlEEvPT_RKN9rapidjson15GenericDocumentINS4_4UTF8IcEENS4_19MemoryPoolAllocatorINS4_12CrtAllocatorEEES9_EERKSsbPm
FNDA:1,_ZN4soil4json9get_valueIjEET_PKN9rapidjson12GenericValueINS3_4UTF8IcEENS3_19MemoryPoolAllocatorINS3_12CrtAllocatorEEEEE
FNDA:17,_ZN4soil4json9get_valueISsEET_PKN9rapidjson12GenericValueINS3_4UTF8IcEENS3_19MemoryPoolAllocatorINS3_12CrtAllocatorEEEEE
FNDA:7,_ZN4soil4json9get_valueImEET_PKN9rapidjson12GenericValueINS3_4UTF8IcEENS3_19MemoryPoolAllocatorINS3_12CrtAllocatorEEEEE
FNDA:1,_ZN4soil4json14get_item_valueIbEEvPT_RKN9rapidjson15GenericDocumentINS4_4UTF8IcEENS4_19MemoryPoolAllocatorINS4_12CrtAllocatorEEES9_EERKSsbPm
FNF:14
FNH:14
DA:50,17
DA:54,17
DA:60,1
DA:64,2
DA:65,4
DA:66,6
DA:70,1
DA:71,2
DA:72,3
DA:76,1
DA:77,2
DA:78,3
DA:82,7
DA:83,14
DA:84,21
DA:90,1
DA:94,39
DA:100,78
DA:101,47
DA:102,9
DA:103,0
DA:104,0
DA:106,39
DA:117,1
DA:130,3
DA:136,1
DA:139,1
DA:142,1
DA:163,1
DA:166,1
LF:30
LH:28
end_of_record
TN:
SF:/var/jenkins_home/workspace/soil_master-334BU6HP7ZUDNTUBIASDDTBNNUA6574M64EMF5MPSIEEUZV6SRLQ/soil/pause.h
FN:35,_ZN4soil5PauseD2Ev
FN:35,_ZN4soil5PauseD0Ev
FNDA:0,_ZN4soil5PauseD2Ev
FNDA:0,_ZN4soil5PauseD0Ev
FNF:2
FNH:0
DA:33,0
DA:35,0
DA:36,0
LF:3
LH:0
end_of_record
TN:
SF:/var/jenkins_home/workspace/soil_master-334BU6HP7ZUDNTUBIASDDTBNNUA6574M64EMF5MPSIEEUZV6SRLQ/soil/reader_writer_queue.h
FN:30,_ZN4soil17ReaderWriterQueueINS_4DataEEC2EPNS_11MsgCallbackIS1_EE
FN:30,_ZN4soil17ReaderWriterQueueISsEC2EPNS_11MsgCallbackISsEE
FN:38,_ZN4soil17ReaderWriterQueueISsED2Ev
FN:38,_ZN4soil17ReaderWriterQueueINS_4DataEED2Ev
FN:38,_ZN4soil17ReaderWriterQueueINS_4DataEED0Ev
FN:38,_ZN4soil17ReaderWriterQueueISsED0Ev
FN:47,_ZN4soil17ReaderWriterQueueISsE7pushMsgESt10shared_ptrISsE
FN:47,_ZN4soil17ReaderWriterQueueINS_4DataEE7pushMsgESt10shared_ptrIS1_E
FN:57,_ZN4soil17ReaderWriterQueueINS_4DataEE3runEv
FN:57,_ZN4soil17ReaderWriterQueueISsE3runEv
FNDA:1,_ZN4soil17ReaderWriterQueueISsED2Ev
FNDA:10,_ZN4soil17ReaderWriterQueueISsE7pushMsgESt10shared_ptrISsE
FNDA:1,_ZN4soil17ReaderWriterQueueINS_4DataEED2Ev
FNDA:1,_ZN4soil17ReaderWriterQueueINS_4DataEE3runEv
FNDA:1,_ZN4soil17ReaderWriterQueueINS_4DataEEC2EPNS_11MsgCallbackIS1_EE
FNDA:1,_ZN4soil17ReaderWriterQueueINS_4DataEED0Ev
FNDA:1,_ZN4soil17ReaderWriterQueueISsEC2EPNS_11MsgCallbackISsEE
FNDA:1,_ZN4soil17ReaderWriterQueueISsE3runEv
FNDA:0,_ZN4soil17ReaderWriterQueueISsED0Ev
FNDA:2,_ZN4soil17ReaderWriterQueueINS_4DataEE7pushMsgESt10shared_ptrIS1_E
FNF:10
FNH:9
DA:15,1
DA:24,1
DA:30,2
DA:33,4
DA:34,2
DA:35,4
DA:36,2
DA:38,3
DA:39,2
DA:41,4
DA:42,4
DA:44,9
DA:47,12
DA:48,12
DA:49,12
DA:51,0
DA:53,12
DA:57,2
DA:58,2
DA:59,2
DA:63,14
DA:65,28
DA:68,12
DA:69,36
DA:70,2
DA:75,2
DA:76,2
DA:78,2
LF:28
LH:27
end_of_record
TN:
SF:/var/jenkins_home/workspace/soil_master-334BU6HP7ZUDNTUBIASDDTBNNUA6574M64EMF5MPSIEEUZV6SRLQ/soil/s_timer.h
FN:35,_ZN4soil6STimerD0Ev
FN:35,_ZN4soil6STimerD2Ev
FNDA:0,_ZN4soil6STimerD0Ev
FNDA:0,_ZN4soil6STimerD2Ev
FNF:2
FNH:0
DA:33,2
DA:35,2
LF:2
LH:2
end_of_record
TN:
SF:/var/jenkins_home/workspace/soil_master-334BU6HP7ZUDNTUBIASDDTBNNUA6574M64EMF5MPSIEEUZV6SRLQ/utest/data_file_test.cc
FN:41,_ZN4soil5PointD0Ev
FN:41,_ZN4soil5PointD2Ev
FN:44,_ZNK4soil5Point11writeToFileEPSt14basic_ofstreamIcSt11char_traitsIcEE
FN:58,_ZN4soil30DataFileTest_dataFileTest_TestD0Ev
FN:58,_ZN4soil30DataFileTest_dataFileTest_Test8TestBodyEv
FN:58,_ZN4soil30DataFileTest_dataFileTest_TestD2Ev
FN:77,_Z41__static_initialization_and_destruction_0ii
FN:77,_GLOBAL__sub_I__ZN4soil30DataFileTest_dataFileTest_Test10test_info_E
FNDA:1,_Z41__static_initialization_and_destruction_0ii
FNDA:1,_GLOBAL__sub_I__ZN4soil30DataFileTest_dataFileTest_Test10test_info_E
FNDA:1,_ZN4soil30DataFileTest_dataFileTest_TestD0Ev
FNDA:1,_ZN4soil30DataFileTest_dataFileTest_Test8TestBodyEv
FNDA:2,_ZNK4soil5Point11writeToFileEPSt14basic_ofstreamIcSt11char_traitsIcEE
FNDA:0,_ZN4soil30DataFileTest_dataFileTest_TestD2Ev
FNDA:2,_ZN4soil5PointD0Ev
FNDA:0,_ZN4soil5PointD2Ev
FNF:8
FNH:6
DA:38,4
DA:41,2
DA:42,2
DA:44,2
DA:45,2
DA:47,2
DA:48,2
DA:50,2
DA:51,2
DA:58,8
DA:59,1
DA:60,2
DA:62,1
DA:64,1
DA:65,1
DA:67,1
DA:68,1
DA:70,2
DA:71,2
DA:73,3
DA:74,1
DA:77,3
LF:22
LH:22
end_of_record
TN:
SF:/var/jenkins_home/workspace/soil_master-334BU6HP7ZUDNTUBIASDDTBNNUA6574M64EMF5MPSIEEUZV6SRLQ/utest/date_time_test.cc
FN:35,_ZN4soil12DateTimeTestD0Ev
FN:35,_ZN4soil12DateTimeTestD2Ev
FN:42,_ZN4soil30DateTimeTest_dateTimeTest_Test8TestBodyEv
FN:42,_ZN4soil30DateTimeTest_dateTimeTest_TestD2Ev
FN:42,_ZN4soil30DateTimeTest_dateTimeTest_TestD0Ev
FN:66,_ZN4soil30DateTimeTest_operatorTest_Test8TestBodyEv
FN:66,_ZN4soil30DateTimeTest_operatorTest_TestD2Ev
FN:66,_ZN4soil30DateTimeTest_operatorTest_TestD0Ev
FN:87,_ZN4soil31DateTimeTest_getStringTest_Test8TestBodyEv
FN:87,_ZN4soil31DateTimeTest_getStringTest_TestD2Ev
FN:87,_ZN4soil31DateTimeTest_getStringTest_TestD0Ev
FN:97,_ZN4soil25DateTimeTest_nowTest_Test8TestBodyEv
FN:97,_ZN4soil25DateTimeTest_nowTest_TestD2Ev
FN:97,_ZN4soil25DateTimeTest_nowTest_TestD0Ev
FN:106,_Z41__static_initialization_and_destruction_0ii
FN:106,_GLOBAL__sub_I__ZN4soil30DateTimeTest_dateTimeTest_Test10test_info_E
FNDA:1,_Z41__static_initialization_and_destruction_0ii
FNDA:1,_GLOBAL__sub_I__ZN4soil30DateTimeTest_dateTimeTest_Test10test_info_E
FNDA:1,_ZN4soil25DateTimeTest_nowTest_Test8TestBodyEv
FNDA:0,_ZN4soil12DateTimeTestD0Ev
FNDA:1,_ZN4soil31DateTimeTest_getStringTest_Test8TestBodyEv
FNDA:1,_ZN4soil30DateTimeTest_operatorTest_Test8TestBodyEv
FNDA:1,_ZN4soil30DateTimeTest_dateTimeTest_Test8TestBodyEv
FNDA:0,_ZN4soil30DateTimeTest_operatorTest_TestD2Ev
FNDA:0,_ZN4soil31DateTimeTest_getStringTest_TestD2Ev
FNDA:1,_ZN4soil31DateTimeTest_getStringTest_TestD0Ev
FNDA:0,_ZN4soil25DateTimeTest_nowTest_TestD2Ev
FNDA:1,_ZN4soil25DateTimeTest_nowTest_TestD0Ev
FNDA:0,_ZN4soil30DateTimeTest_dateTimeTest_TestD2Ev
FNDA:1,_ZN4soil30DateTimeTest_operatorTest_TestD0Ev
FNDA:0,_ZN4soil12DateTimeTestD2Ev
FNDA:1,_ZN4soil30DateTimeTest_dateTimeTest_TestD0Ev
FNF:16
FNH:10
DA:35,4
DA:37,4
DA:42,10
DA:43,1
DA:44,3
DA:45,1
DA:47,1
DA:49,2
DA:50,2
DA:54,2
DA:55,2
DA:59,2
DA:60,2
DA:63,2
DA:64,1
DA:66,10
DA:67,1
DA:69,1
DA:71,2
DA:73,1
DA:75,2
DA:76,1
DA:78,2
DA:79,1
DA:80,1
DA:82,2
DA:84,3
DA:85,1
DA:87,10
DA:88,1
DA:90,2
DA:91,2
DA:92,2
DA:94,3
DA:97,10
DA:98,1
DA:99,1
DA:100,1
DA:101,1
DA:103,2
DA:106,3
LF:41
LH:41
end_of_record
TN:
SF:/var/jenkins_home/workspace/soil_master-334BU6HP7ZUDNTUBIASDDTBNNUA6574M64EMF5MPSIEEUZV6SRLQ/utest/demangle_test.cc
FN:33,_ZN4soil12DemangleTestD2Ev
FN:33,_ZN4soil12DemangleTestD0Ev
FN:40,_ZN4soil30DemangleTest_demangleTest_TestD0Ev
FN:40,_ZN4soil30DemangleTest_demangleTest_TestD2Ev
FN:73,_Z41__static_initialization_and_destruction_0ii
FN:73,_GLOBAL__sub_I__ZN4soil30DemangleTest_demangleTest_Test10test_info_E
FNDA:1,_ZN4soil30DemangleTest_demangleTest_Test8TestBodyEv
FNDA:1,_Z41__static_initialization_and_destruction_0ii
FNDA:1,_ZN4soil30DemangleTest_demangleTest_TestD0Ev
FNDA:0,_ZN4soil12DemangleTestD2Ev
FNDA:0,_ZN4soil30DemangleTest_demangleTest_TestD2Ev
FNDA:1,_GLOBAL__sub_I__ZN4soil30DemangleTest_demangleTest_Test10test_info_E
FNDA:0,_ZN4soil12DemangleTestD0Ev
FNF:7
FNH:4
DA:33,1
DA:35,1
DA:40,10
DA:41,3
DA:43,3
DA:45,3
DA:47,3
DA:51,3
DA:54,3
DA:56,3
DA:59,3
DA:63,3
DA:66,3
DA:70,2
DA:73,3
LF:15
LH:15
end_of_record
TN:
SF:/var/jenkins_home/workspace/soil_master-334BU6HP7ZUDNTUBIASDDTBNNUA6574M64EMF5MPSIEEUZV6SRLQ/utest/hexdump_test.cc
FN:37,_ZN4soil24HexdumpTest_allTest_TestD2Ev
FN:37,_ZN4soil24HexdumpTest_allTest_TestD0Ev
FN:37,_ZN4soil24HexdumpTest_allTest_Test8TestBodyEv
FN:49,_Z41__static_initialization_and_destruction_0ii
FN:49,_GLOBAL__sub_I__ZN4soil24HexdumpTest_allTest_Test10test_info_E
FNDA:1,_Z41__static_initialization_and_destruction_0ii
FNDA:0,_ZN4soil24HexdumpTest_allTest_TestD2Ev
FNDA:1,_GLOBAL__sub_I__ZN4soil24HexdumpTest_allTest_Test10test_info_E
FNDA:1,_ZN4soil24HexdumpTest_allTest_TestD0Ev
FNDA:1,_ZN4soil24HexdumpTest_allTest_Test8TestBodyEv
FNF:5
FNH:4
DA:37,8
DA:38,1
DA:39,1
DA:40,2
DA:45,2
DA:46,1
DA:49,3
LF:7
LH:7
end_of_record
TN:
SF:/var/jenkins_home/workspace/soil_master-334BU6HP7ZUDNTUBIASDDTBNNUA6574M64EMF5MPSIEEUZV6SRLQ/utest/json_test.cc
FN:44,_ZN4soil26JsonTest_getValueTest_Test8TestBodyEv
FN:44,_ZN4soil26JsonTest_getValueTest_TestD2Ev
FN:44,_ZN4soil26JsonTest_getValueTest_TestD0Ev
FN:81,_ZN4soil24JsonTest_escapeTest_TestD0Ev
FN:81,_ZN4soil24JsonTest_escapeTest_TestD2Ev
FN:81,_ZN4soil24JsonTest_escapeTest_Test8TestBodyEv
FN:111,_ZN4soil28JsonTest_writeValueTest_Test8TestBodyEv
FN:111,_ZN4soil28JsonTest_writeValueTest_TestD0Ev
FN:111,_ZN4soil28JsonTest_writeValueTest_TestD2Ev
FN:144,_Z41__static_initialization_and_destruction_0ii
FN:144,_GLOBAL__sub_I__ZN4soil26JsonTest_getValueTest_Test10test_info_E
FNDA:1,_Z41__static_initialization_and_destruction_0ii
FNDA:1,_ZN4soil28JsonTest_writeValueTest_Test8TestBodyEv
FNDA:1,_ZN4soil26JsonTest_getValueTest_Test8TestBodyEv
FNDA:0,_ZN4soil26JsonTest_getValueTest_TestD2Ev
FNDA:1,_GLOBAL__sub_I__ZN4soil26JsonTest_getValueTest_Test10test_info_E
FNDA:1,_ZN4soil24JsonTest_escapeTest_TestD0Ev
FNDA:0,_ZN4soil24JsonTest_escapeTest_TestD2Ev
FNDA:1,_ZN4soil28JsonTest_writeValueTest_TestD0Ev
FNDA:1,_ZN4soil26JsonTest_getValueTest_TestD0Ev
FNDA:0,_ZN4soil28JsonTest_writeValueTest_TestD2Ev
FNDA:1,_ZN4soil24JsonTest_escapeTest_Test8TestBodyEv
FNF:11
FNH:8
DA:44,8
DA:45,1
DA:46,2
DA:49,2
DA:50,1
DA:53,2
DA:54,1
DA:57,2
DA:58,2
DA:61,2
DA:62,2
DA:65,2
DA:66,2
DA:69,2
DA:70,2
DA:73,2
DA:74,2
DA:77,2
DA:78,3
DA:81,8
DA:82,1
DA:83,2
DA:84,1
DA:86,1
DA:89,1
DA:90,1
DA:91,1
DA:92,1
DA:93,2
DA:95,2
DA:96,3
DA:97,0
DA:98,1
DA:101,2
DA:103,2
DA:104,1
DA:106,1
DA:107,1
DA:108,2
DA:111,8
DA:115,1
DA:116,1
DA:118,1
DA:120,1
DA:122,1
DA:123,1
DA:124,1
DA:125,1
DA:126,1
DA:128,1
DA:129,1
DA:130,1
DA:131,1
DA:133,1
DA:134,1
DA:135,1
DA:136,1
DA:137,1
DA:139,2
DA:141,2
DA:142,1
DA:144,3
LF:62
LH:61
end_of_record
TN:
SF:/var/jenkins_home/workspace/soil_master-334BU6HP7ZUDNTUBIASDDTBNNUA6574M64EMF5MPSIEEUZV6SRLQ/utest/log_test.cc
FN:42,_ZN4soillsIcSt11char_traitsIcEEERSt13basic_ostreamIT_T0_ES7_RKNS_5pointE
FN:47,_ZN4soil20LogTest_logTest_TestD2Ev
FN:47,_ZN4soil20LogTest_logTest_TestD0Ev
FN:47,_ZN4soil20LogTest_logTest_Test8TestBodyEv
FN:91,_Z41__static_initialization_and_destruction_0ii
FN:91,_GLOBAL__sub_I__ZN4soil20LogTest_logTest_Test10test_info_E
FNDA:1,_Z41__static_initialization_and_destruction_0ii
FNDA:0,_ZN4soil20LogTest_logTest_TestD2Ev
FNDA:1,_ZN4soil20LogTest_logTest_TestD0Ev
FNDA:1,_ZN4soil20LogTest_logTest_Test8TestBodyEv
FNDA:1,_ZN4soillsIcSt11char_traitsIcEEERSt13basic_ostreamIT_T0_ES7_RKNS_5pointE
FNDA:1,_GLOBAL__sub_I__ZN4soil20LogTest_logTest_Test10test_info_E
FNF:6
FNH:5
DA:37,1
DA:42,1
DA:43,3
DA:44,1
DA:47,8
DA:54,1
DA:55,2
DA:57,1
DA:59,1
DA:60,1
DA:61,1
DA:62,1
DA:63,1
DA:64,1
DA:66,1
DA:67,1
DA:68,1
DA:69,1
DA:70,1
DA:71,1
DA:74,1
DA:76,1
DA:78,1
DA:79,1
DA:81,1
DA:82,1
DA:84,1
DA:85,1
DA:87,3
DA:88,1
DA:91,3
LF:31
LH:31
end_of_record
TN:
SF:/var/jenkins_home/workspace/soil_master-334BU6HP7ZUDNTUBIASDDTBNNUA6574M64EMF5MPSIEEUZV6SRLQ/utest/macro_test.cc
FN:34,_ZN4soil9MacroTestD2Ev
FN:34,_ZN4soil9MacroTestD0Ev
FN:41,_ZN4soil27MacroTest_rangeForTest_TestD0Ev
FN:41,_ZN4soil27MacroTest_rangeForTest_TestD2Ev
FN:41,_ZN4soil27MacroTest_rangeForTest_Test8TestBodyEv
FN:64,_Z41__static_initialization_and_destruction_0ii
FN:64,_GLOBAL__sub_I__ZN4soil27MacroTest_rangeForTest_Test10test_info_E
FNDA:1,_Z41__static_initialization_and_destruction_0ii
FNDA:0,_ZN4soil9MacroTestD2Ev
FNDA:1,_ZN4soil27MacroTest_rangeForTest_TestD0Ev
FNDA:1,_GLOBAL__sub_I__ZN4soil27MacroTest_rangeForTest_Test10test_info_E
FNDA:0,_ZN4soil27MacroTest_rangeForTest_TestD2Ev
FNDA:0,_ZN4soil9MacroTestD0Ev
FNDA:1,_ZN4soil27MacroTest_rangeForTest_Test8TestBodyEv
FNF:7
FNH:4
DA:34,1
DA:36,1
DA:41,10
DA:42,1
DA:44,16
DA:45,13
DA:49,1
DA:50,4
DA:51,3
DA:52,3
DA:56,6
DA:57,3
DA:61,2
DA:62,1
DA:64,3
LF:15
LH:15
end_of_record
TN:
SF:/var/jenkins_home/workspace/soil_master-334BU6HP7ZUDNTUBIASDDTBNNUA6574M64EMF5MPSIEEUZV6SRLQ/utest/reader_writer_queue_test.cc
FN:38,_ZN4soil25ReaderWriterQueueCallback5onMsgESt10shared_ptrISsE
FN:45,_ZN4soil25ReaderWriterQueueCallback7onStartEv
FN:49,_ZN4soil25ReaderWriterQueueCallback6onStopEv
FN:54,_ZN4soil36ReaderWriterQueueTest_queueTest_Test8TestBodyEv
FN:54,_ZN4soil36ReaderWriterQueueTest_queueTest_TestD2Ev
FN:54,_ZN4soil36ReaderWriterQueueTest_queueTest_TestD0Ev
FN:73,_Z41__static_initialization_and_destruction_0ii
FN:73,_GLOBAL__sub_I__ZN4soil36ReaderWriterQueueTest_queueTest_Test10test_info_E
FNDA:1,_Z41__static_initialization_and_destruction_0ii
FNDA:1,_ZN4soil36ReaderWriterQueueTest_queueTest_Test8TestBodyEv
FNDA:1,_ZN4soil25ReaderWriterQueueCallback7onStartEv
FNDA:1,_ZN4soil25ReaderWriterQueueCallback6onStopEv
FNDA:1,_GLOBAL__sub_I__ZN4soil36ReaderWriterQueueTest_queueTest_Test10test_info_E
FNDA:0,_ZN4soil36ReaderWriterQueueTest_queueTest_TestD2Ev
FNDA:1,_ZN4soil36ReaderWriterQueueTest_queueTest_TestD0Ev
FNDA:10,_ZN4soil25ReaderWriterQueueCallback5onMsgESt10shared_ptrISsE
FNF:8
FNH:7
DA:35,1
DA:38,10
DA:40,10
DA:43,10
DA:45,1
DA:46,1
DA:47,1
DA:49,1
DA:50,1
DA:51,1
DA:54,8
DA:55,1
DA:57,2
DA:60,10
DA:65,10
DA:66,20
DA:69,2
DA:70,1
DA:73,3
LF:19
LH:19
end_of_record
TN:
SF:/var/jenkins_home/workspace/soil_master-334BU6HP7ZUDNTUBIASDDTBNNUA6574M64EMF5MPSIEEUZV6SRLQ/utest/ring_queue_test.cc
FN:60,_ZN4soil26RingQueueTest_allTest_TestD2Ev
FN:60,_ZN4soil26RingQueueTest_allTest_Test8TestBodyEv
FN:60,_ZN4soil26RingQueueTest_allTest_TestD0Ev
FN:83,_Z41__static_initialization_and_destruction_0ii
FN:83,_GLOBAL__sub_I__ZN4soil26RingQueueTest_allTest_Test10test_info_E
FNDA:1,_Z41__static_initialization_and_destruction_0ii
FNDA:0,_ZN4soil26RingQueueTest_allTest_TestD2Ev
FNDA:1,_GLOBAL__sub_I__ZN4soil26RingQueueTest_allTest_Test10test_info_E
FNDA:1,_ZN4soil26RingQueueTest_allTest_Test8TestBodyEv
FNDA:1,_ZN4soil26RingQueueTest_allTest_TestD0Ev
FNF:5
FNH:4
DA:60,8
DA:77,1
DA:79,2
DA:80,1
DA:83,3
LF:5
LH:5
end_of_record
TN:
SF:/var/jenkins_home/workspace/soil_master-334BU6HP7ZUDNTUBIASDDTBNNUA6574M64EMF5MPSIEEUZV6SRLQ/utest/s_timer_test.cc
FN:34,_ZN4soil10STimerTestD0Ev
FN:59,_ZN4soil26STimerTest_wait2STest_TestD2Ev
FN:59,_ZN4soil26STimerTest_wait2STest_TestD0Ev
FN:65,_ZN4soil26STimerTest_notifyTest_TestD0Ev
FN:65,_ZN4soil26STimerTest_notifyTest_TestD2Ev
FN:76,_Z41__static_initialization_and_destruction_0ii
FN:76,_GLOBAL__sub_I__ZN4soil26STimerTest_wait2STest_Test10test_info_E
FNDA:2,_ZN4soil10STimerTestD2Ev
FNDA:1,_Z41__static_initialization_and_destruction_0ii
FNDA:0,_ZN4soil26STimerTest_wait2STest_TestD2Ev
FNDA:1,_ZN4soil26STimerTest_notifyTest_Test8TestBodyEv
FNDA:1,_GLOBAL__sub_I__ZN4soil26STimerTest_wait2STest_Test10test_info_E
FNDA:0,_ZN4soil10STimerTestD0Ev
FNDA:1,_ZN4soil10STimerTest6wait2SEv
FNDA:1,_ZN4soil26STimerTest_wait2STest_TestD0Ev
FNDA:1,_ZN4soil26STimerTest_notifyTest_TestD0Ev
FNDA:1,_ZN4soil26STimerTest_wait2STest_Test8TestBodyEv
FNDA:0,_ZN4soil26STimerTest_notifyTest_TestD2Ev
FNDA:2,_ZN4soil10STimerTest5SetUpEv
FNF:12
FNH:9
DA:34,4
DA:36,2
DA:39,2
DA:40,2
DA:41,2
DA:44,2
DA:51,1
DA:52,4
DA:53,1
DA:59,9
DA:60,1
DA:62,2
DA:63,1
DA:65,9
DA:66,1
DA:68,2
DA:69,1
DA:70,1
DA:72,2
DA:73,1
DA:76,3
LF:21
LH:21
end_of_record
TN:
SF:/var/jenkins_home/workspace/soil_master-334BU6HP7ZUDNTUBIASDDTBNNUA6574M64EMF5MPSIEEUZV6SRLQ/utest/string_test.cc
FN:36,_ZN4soil25StringTest_splitTest_Test8TestBodyEv
FN:36,_ZN4soil25StringTest_splitTest_TestD0Ev
FN:36,_ZN4soil25StringTest_splitTest_TestD2Ev
FN:60,_ZN4soil23StringTest_toUpper_TestD0Ev
FN:60,_ZN4soil23StringTest_toUpper_TestD2Ev
FN:67,_Z41__static_initialization_and_destruction_0ii
FN:67,_GLOBAL__sub_I__ZN4soil25StringTest_splitTest_Test10test_info_E
FNDA:1,_Z41__static_initialization_and_destruction_0ii
FNDA:1,_ZN4soil25StringTest_splitTest_Test8TestBodyEv
FNDA:1,_ZN4soil23StringTest_toUpper_TestD0Ev
FNDA:1,_ZN4soil25StringTest_splitTest_TestD0Ev
FNDA:0,_ZN4soil25StringTest_splitTest_TestD2Ev
FNDA:1,_GLOBAL__sub_I__ZN4soil25StringTest_splitTest_Test10test_info_E
FNDA:0,_ZN4soil23StringTest_toUpper_TestD2Ev
FNDA:1,_ZN4soil23StringTest_toUpper_Test8TestBodyEv
FNF:8
FNH:6
DA:36,8
DA:37,1
DA:40,1
DA:42,1
DA:43,1
DA:44,6
DA:45,2
DA:50,1
DA:51,1
DA:52,6
DA:53,2
DA:57,2
DA:58,1
DA:60,8
DA:61,1
DA:62,1
DA:64,2
DA:67,3
LF:18
LH:18
end_of_record
